target datalayout = "e-m:e-p270:32:32-p271:32:32-p272:64:64-i64:64-i128:128-f80:128-n8:16:32:64-S128"
target triple = "x86_64-pc-linux-gnu"

%struct.yyguts_t = type { ptr, ptr, ptr, i64, i64, ptr, i8, i32, i32, ptr, i32, i32, i32, i32, i32, ptr, i32, ptr, i32, i32, ptr, i32, i32, ptr, ptr }

@.str.39 = private unnamed_addr constant [46 x i8] c"out of memory expanding start-condition stack\00", align 1

; Function Attrs: mustprogress nounwind uwtable
define noundef ptr @_Z9yyreallocPvmS_(ptr noundef %0, i64 noundef %1, ptr noundef %2) #2 {
  %4 = alloca ptr, align 8
  %5 = alloca i64, align 8
  %6 = alloca ptr, align 8
  %7 = alloca ptr, align 8
  store ptr %0, ptr %4, align 8
  store i64 %1, ptr %5, align 8
  store ptr %2, ptr %6, align 8
  %8 = load ptr, ptr %6, align 8
  store ptr %8, ptr %7, align 8
  %9 = load ptr, ptr %4, align 8
  %10 = load i64, ptr %5, align 8
  %11 = call ptr @realloc(ptr noundef %9, i64 noundef %10) #28
  ret ptr %11
}

; Function Attrs: mustprogress nounwind uwtable
define noundef ptr @_Z7yyallocmPv(i64 noundef %0, ptr noundef %1) #2 {
  %3 = alloca i64, align 8
  %4 = alloca ptr, align 8
  %5 = alloca ptr, align 8
  store i64 %0, ptr %3, align 8
  store ptr %1, ptr %4, align 8
  %6 = load ptr, ptr %4, align 8
  store ptr %6, ptr %5, align 8
  %7 = load i64, ptr %3, align 8
  %8 = call noalias ptr @malloc(i64 noundef %7) #26
  ret ptr %8
}

; Function Attrs: mustprogress uwtable
define internal void @_ZL13yy_push_stateiPv(i32 noundef %0, ptr noundef %1) #5 {
  %3 = alloca i32, align 4
  %4 = alloca ptr, align 8
  %5 = alloca ptr, align 8
  %6 = alloca i64, align 8
  store i32 %0, ptr %3, align 4
  store ptr %1, ptr %4, align 8
  %7 = load ptr, ptr %4, align 8
  store ptr %7, ptr %5, align 8
  %8 = load ptr, ptr %5, align 8
  %9 = getelementptr inbounds %struct.yyguts_t, ptr %8, i32 0, i32 13
  %10 = load i32, ptr %9, align 4
  %11 = load ptr, ptr %5, align 8
  %12 = getelementptr inbounds %struct.yyguts_t, ptr %11, i32 0, i32 14
  %13 = load i32, ptr %12, align 8
  %14 = icmp sge i32 %10, %13
  br i1 %14, label %15, label %52

15:                                               ; preds = %2
  %16 = load ptr, ptr %5, align 8
  %17 = getelementptr inbounds %struct.yyguts_t, ptr %16, i32 0, i32 14
  %18 = load i32, ptr %17, align 8
  %19 = add nsw i32 %18, 25
  store i32 %19, ptr %17, align 8
  %20 = load ptr, ptr %5, align 8
  %21 = getelementptr inbounds %struct.yyguts_t, ptr %20, i32 0, i32 14
  %22 = load i32, ptr %21, align 8
  %23 = sext i32 %22 to i64
  %24 = mul i64 %23, 4
  store i64 %24, ptr %6, align 8
  %25 = load ptr, ptr %5, align 8
  %26 = getelementptr inbounds %struct.yyguts_t, ptr %25, i32 0, i32 15
  %27 = load ptr, ptr %26, align 8
  %28 = icmp ne ptr %27, null
  br i1 %28, label %35, label %29

29:                                               ; preds = %15
  %30 = load i64, ptr %6, align 8
  %31 = load ptr, ptr %4, align 8
  %32 = call noundef ptr @_Z7yyallocmPv(i64 noundef %30, ptr noundef %31)
  %33 = load ptr, ptr %5, align 8
  %34 = getelementptr inbounds %struct.yyguts_t, ptr %33, i32 0, i32 15
  store ptr %32, ptr %34, align 8
  br label %44

35:                                               ; preds = %15
  %36 = load ptr, ptr %5, align 8
  %37 = getelementptr inbounds %struct.yyguts_t, ptr %36, i32 0, i32 15
  %38 = load ptr, ptr %37, align 8
  %39 = load i64, ptr %6, align 8
  %40 = load ptr, ptr %4, align 8
  %41 = call noundef ptr @_Z9yyreallocPvmS_(ptr noundef %38, i64 noundef %39, ptr noundef %40)
  %42 = load ptr, ptr %5, align 8
  %43 = getelementptr inbounds %struct.yyguts_t, ptr %42, i32 0, i32 15
  store ptr %41, ptr %43, align 8
  br label %44

44:                                               ; preds = %35, %29
  %45 = load ptr, ptr %5, align 8
  %46 = getelementptr inbounds %struct.yyguts_t, ptr %45, i32 0, i32 15
  %47 = load ptr, ptr %46, align 8
  %48 = icmp ne ptr %47, null
  br i1 %48, label %51, label %49

49:                                               ; preds = %44
  %50 = load ptr, ptr %4, align 8
  call void @_ZL14yy_fatal_errorPKcPv(ptr noundef @.str.39, ptr noundef %50) #24
  unreachable

51:                                               ; preds = %44
  br label %52

52:                                               ; preds = %51, %2
  %53 = load ptr, ptr %5, align 8
  %54 = getelementptr inbounds %struct.yyguts_t, ptr %53, i32 0, i32 11
  %55 = load i32, ptr %54, align 4
  %56 = sub nsw i32 %55, 1
  %57 = sdiv i32 %56, 2
  %58 = load ptr, ptr %5, align 8
  %59 = getelementptr inbounds %struct.yyguts_t, ptr %58, i32 0, i32 15
  %60 = load ptr, ptr %59, align 8
  %61 = load ptr, ptr %5, align 8
  %62 = getelementptr inbounds %struct.yyguts_t, ptr %61, i32 0, i32 13
  %63 = load i32, ptr %62, align 4
  %64 = add nsw i32 %63, 1
  store i32 %64, ptr %62, align 4
  %65 = sext i32 %63 to i64
  %66 = getelementptr inbounds i32, ptr %60, i64 %65
  store i32 %57, ptr %66, align 4
  %67 = load i32, ptr %3, align 4
  %68 = mul nsw i32 2, %67
  %69 = add nsw i32 1, %68
  %70 = load ptr, ptr %5, align 8
  %71 = getelementptr inbounds %struct.yyguts_t, ptr %70, i32 0, i32 11
  store i32 %69, ptr %71, align 4
  ret void
}