; Function Attrs: mustprogress nounwind uwtable
define internal fastcc void @_ZL13yy_push_stateiPv(i32 noundef %0, ptr nocapture noundef %1) unnamed_addr #5 {
  %3 = getelementptr inbounds i8, ptr %1, i64 84
  %4 = load i32, ptr %3, align 4
  %5 = getelementptr inbounds i8, ptr %1, i64 88
  %6 = load i32, ptr %5, align 8
  %.not = icmp slt i32 %4, %6
  br i1 %.not, label %._crit_edge, label %7

._crit_edge:                                      ; preds = %2
  %.phi.trans.insert = getelementptr inbounds i8, ptr %1, i64 96
  %.pre = load ptr, ptr %.phi.trans.insert, align 8
  br label %19

7:                                                ; preds = %2
  %8 = add nsw i32 %6, 25
  store i32 %8, ptr %5, align 8
  %9 = sext i32 %8 to i64
  %10 = shl nsw i64 %9, 2
  %11 = getelementptr inbounds i8, ptr %1, i64 96
  %12 = load ptr, ptr %11, align 8
  %.not20 = icmp eq ptr %12, null
  br i1 %.not20, label %13, label %15

13:                                               ; preds = %7
  %14 = tail call noalias noundef ptr @malloc(i64 noundef %10) #44
  br label %17

15:                                               ; preds = %7
  %16 = tail call noalias noundef ptr @realloc(ptr noundef nonnull %12, i64 noundef %10) #46
  br label %17

17:                                               ; preds = %15, %13
  %storemerge = phi ptr [ %14, %13 ], [ %16, %15 ]
  store ptr %storemerge, ptr %11, align 8
  %.not21 = icmp eq ptr %storemerge, null
  br i1 %.not21, label %18, label %._crit_edge22

._crit_edge22:                                    ; preds = %17
  %.pre23 = load i32, ptr %3, align 4
  br label %19

18:                                               ; preds = %17
  tail call fastcc void @_ZL14yy_fatal_errorPKcPv(ptr noundef nonnull @.str.39) #45
  unreachable

19:                                               ; preds = %._crit_edge22, %._crit_edge
  %20 = phi i32 [ %4, %._crit_edge ], [ %.pre23, %._crit_edge22 ]
  %21 = phi ptr [ %.pre, %._crit_edge ], [ %storemerge, %._crit_edge22 ]
  %22 = getelementptr inbounds i8, ptr %1, i64 76
  %23 = load i32, ptr %22, align 4
  %24 = add nsw i32 %23, -1
  %25 = sdiv i32 %24, 2
  %26 = add nsw i32 %20, 1
  store i32 %26, ptr %3, align 4
  %27 = sext i32 %20 to i64
  %28 = getelementptr inbounds i32, ptr %21, i64 %27
  store i32 %25, ptr %28, align 4
  %29 = shl nuw nsw i32 %0, 1
  %30 = or disjoint i32 %29, 1
  store i32 %30, ptr %22, align 4
  ret void
}